target datalayout = "e-m:e-p270:32:32-p271:32:32-p272:64:64-i64:64-i128:128-f80:128-n8:16:32:64-S128"
target triple = "x86_64-pc-linux-gnu"

%struct.GDBUserState = type { i32, ptr, i32, i8, [16 x i64], i8, i32, [2 x i32], i32, i32, [128 x i8], i64 }

@gdbserver_user_state = internal global %struct.GDBUserState zeroinitializer, align 8
@.str.21 = private unnamed_addr constant [18 x i8] c"syscall_entry:%x;\00", align 1

; Function Attrs: inlinehint nounwind sspstrong uwtable
define internal i32 @test_bit(i64 noundef %0, ptr noundef %1) #6 {
  %3 = alloca i64, align 8
  %4 = alloca ptr, align 8
  store i64 %0, ptr %3, align 8
  store ptr %1, ptr %4, align 8
  %5 = load ptr, ptr %4, align 8
  %6 = load i64, ptr %3, align 8
  %7 = udiv i64 %6, 64
  %8 = getelementptr inbounds nuw i64, ptr %5, i64 %7
  %9 = load i64, ptr %8, align 8
  %10 = load i64, ptr %3, align 8
  %11 = and i64 %10, 63
  %12 = lshr i64 %9, %11
  %13 = and i64 1, %12
  %14 = trunc i64 %13 to i32
  ret i32 %14
}

; Function Attrs: inlinehint nounwind sspstrong uwtable
define internal void @g_autoptr_cleanup_generic_gfree(ptr noundef %0) #6 {
  %2 = alloca ptr, align 8
  %3 = alloca ptr, align 8
  store ptr %0, ptr %2, align 8
  call void @llvm.lifetime.start.p0(i64 8, ptr %3) #14
  %4 = load ptr, ptr %2, align 8
  store ptr %4, ptr %3, align 8
  %5 = load ptr, ptr %3, align 8
  %6 = load ptr, ptr %5, align 8
  call void @g_free(ptr noundef %6)
  call void @llvm.lifetime.end.p0(i64 8, ptr %3) #14
  ret void
}

; Function Attrs: nounwind sspstrong uwtable
define internal zeroext i1 @should_catch_syscall(i32 noundef %0) #0 {
  %2 = alloca i1, align 1
  %3 = alloca i32, align 4
  store i32 %0, ptr %3, align 4
  %4 = load i8, ptr getelementptr inbounds nuw (%struct.GDBUserState, ptr @gdbserver_user_state, i32 0, i32 3), align 4, !range !7, !noundef !8
  %5 = trunc i8 %4 to i1
  br i1 %5, label %6, label %7

6:                                                ; preds = %1
  store i1 true, ptr %2, align 1
  br label %19

7:                                                ; preds = %1
  %8 = load i32, ptr %3, align 4
  %9 = icmp slt i32 %8, 0
  br i1 %9, label %13, label %10

10:                                               ; preds = %7
  %11 = load i32, ptr %3, align 4
  %12 = icmp sge i32 %11, 1024
  br i1 %12, label %13, label %14

13:                                               ; preds = %10, %7
  store i1 false, ptr %2, align 1
  br label %19

14:                                               ; preds = %10
  %15 = load i32, ptr %3, align 4
  %16 = sext i32 %15 to i64
  %17 = call i32 @test_bit(i64 noundef %16, ptr noundef getelementptr inbounds nuw (%struct.GDBUserState, ptr @gdbserver_user_state, i32 0, i32 4))
  %18 = icmp ne i32 %17, 0
  store i1 %18, ptr %2, align 1
  br label %19

19:                                               ; preds = %14, %13, %6
  %20 = load i1, ptr %2, align 1
  ret i1 %20
}

; Function Attrs: nounwind sspstrong uwtable
define dso_local void @gdb_syscall_entry(ptr noundef %0, i32 noundef %1) #0 {
  %3 = alloca ptr, align 8
  %4 = alloca i32, align 4
  %5 = alloca ptr, align 8
  store ptr %0, ptr %3, align 8
  store i32 %1, ptr %4, align 4
  %6 = load i32, ptr %4, align 4
  %7 = call zeroext i1 @should_catch_syscall(i32 noundef %6)
  br i1 %7, label %8, label %15

8:                                                ; preds = %2
  call void @llvm.lifetime.start.p0(i64 8, ptr %5) #14
  %9 = load i32, ptr %4, align 4
  %10 = call noalias ptr (ptr, ...) @g_strdup_printf(ptr noundef @.str.21, i32 noundef %9)
  store ptr %10, ptr %5, align 8
  %11 = load ptr, ptr %3, align 8
  %12 = call i32 @gdb_target_sigtrap()
  %13 = load ptr, ptr %5, align 8
  %14 = call i32 @gdb_handlesig(ptr noundef %11, i32 noundef %12, ptr noundef %13, ptr noundef null, i32 noundef 0)
  call void @g_autoptr_cleanup_generic_gfree(ptr noundef %5)
  call void @llvm.lifetime.end.p0(i64 8, ptr %5) #14
  br label %15

15:                                               ; preds = %8, %2
  ret void
}