; Function Attrs: nounwind sspstrong uwtable
define dso_local void @gdb_syscall_entry(ptr noundef %0, i32 noundef %1) local_unnamed_addr #0 {
  %3 = load i8, ptr getelementptr inbounds nuw (i8, ptr @gdbserver_user_state, i64 20), align 4, !range !7, !noundef !8
  %4 = trunc nuw i8 %3 to i1
  br i1 %4, label %should_catch_syscall.exit.thread, label %5

5:                                                ; preds = %2
  %or.cond.i = icmp ugt i32 %1, 1023
  br i1 %or.cond.i, label %should_catch_syscall.exit.thread3, label %should_catch_syscall.exit

should_catch_syscall.exit:                        ; preds = %5
  %6 = zext nneg i32 %1 to i64
  %7 = lshr i64 %6, 6
  %8 = getelementptr inbounds nuw i64, ptr getelementptr inbounds nuw (i8, ptr @gdbserver_user_state, i64 24), i64 %7
  %9 = load i64, ptr %8, align 8
  %10 = and i64 %6, 63
  %11 = shl nuw i64 1, %10
  %12 = and i64 %9, %11
  %.not = icmp eq i64 %12, 0
  br i1 %.not, label %should_catch_syscall.exit.thread3, label %should_catch_syscall.exit.thread

should_catch_syscall.exit.thread:                 ; preds = %2, %should_catch_syscall.exit
  %13 = tail call noalias ptr (ptr, ...) @g_strdup_printf(ptr noundef nonnull @.str.21, i32 noundef %1) #16
  %14 = tail call i32 @gdb_target_sigtrap() #16
  %15 = tail call i32 @gdb_handlesig(ptr noundef %0, i32 noundef %14, ptr noundef %13, ptr noundef null, i32 noundef 0)
  tail call void @g_free(ptr noundef %13) #16
  br label %should_catch_syscall.exit.thread3

should_catch_syscall.exit.thread3:                ; preds = %5, %should_catch_syscall.exit.thread, %should_catch_syscall.exit
  ret void
}